; Function Attrs: mustprogress uwtable
define hidden void @_ZN4cvc58internal7CDProofC2ERNS0_3EnvEPNS_7context7ContextERKNSt7__cxx1112basic_stringIcSt11char_traitsIcESaIcEEEb(ptr noundef nonnull align 8 dereferenceable(217) %this, ptr noundef nonnull align 8 dereferenceable(576) %env, ptr noundef %c, ptr noundef nonnull align 8 dereferenceable(32) %name, i1 noundef zeroext %autoSymm) unnamed_addr #3 align 2 personality ptr @__gxx_personality_v0 {
entry:
  tail call void @_ZN4cvc58internal6EnvObjC2ERNS0_3EnvE(ptr noundef nonnull align 8 dereferenceable(16) %this, ptr noundef nonnull align 8 dereferenceable(576) %env)
  %0 = getelementptr inbounds i8, ptr %this, i64 16
  tail call void @_ZN4cvc58internal14ProofGeneratorC2Ev(ptr noundef nonnull align 8 dereferenceable(8) %0)
  store ptr getelementptr inbounds ({ [6 x ptr], [8 x ptr] }, ptr @_ZTVN4cvc58internal7CDProofE, i64 0, i32 0, i64 2), ptr %this, align 8
  store ptr getelementptr inbounds ({ [6 x ptr], [8 x ptr] }, ptr @_ZTVN4cvc58internal7CDProofE, i64 0, i32 1, i64 2), ptr %0, align 8
  %d_context = getelementptr inbounds i8, ptr %this, i64 24
  invoke void @_ZN4cvc57context7ContextC1Ev(ptr noundef nonnull align 8 dereferenceable(48) %d_context)
          to label %invoke.cont3 unwind label %lpad2

invoke.cont3:                                     ; preds = %entry
  %d_nodes = getelementptr inbounds i8, ptr %this, i64 72
  %tobool.not = icmp eq ptr %c, null
  %cond = select i1 %tobool.not, ptr %d_context, ptr %c
  invoke void @_ZN4cvc57context10ContextObjC2EPNS0_7ContextE(ptr noundef nonnull align 8 dereferenceable(40) %d_nodes, ptr noundef nonnull %cond)
          to label %invoke.cont6 unwind label %lpad5

invoke.cont6:                                     ; preds = %invoke.cont3
  store ptr getelementptr inbounds ({ [6 x ptr] }, ptr @_ZTVN4cvc57context9CDHashMapINS_8internal12NodeTemplateILb1EEESt10shared_ptrINS2_9ProofNodeEESt4hashIS4_EEE, i64 0, i32 0, i64 2), ptr %d_nodes, align 8
  %d_map.i = getelementptr inbounds i8, ptr %this, i64 112
  %1 = getelementptr inbounds i8, ptr %this, i64 144
  store i64 0, ptr %1, align 8
  %_M_single_bucket.i.i.i = getelementptr inbounds i8, ptr %this, i64 160
  store ptr %_M_single_bucket.i.i.i, ptr %d_map.i, align 8
  %_M_bucket_count.i.i.i = getelementptr inbounds i8, ptr %this, i64 120
  store i64 1, ptr %_M_bucket_count.i.i.i, align 8
  %_M_before_begin.i.i.i = getelementptr inbounds i8, ptr %this, i64 128
  tail call void @llvm.memset.p0.i64(ptr noundef nonnull align 8 dereferenceable(16) %_M_before_begin.i.i.i, i8 0, i64 16, i1 false)
  store float 1.000000e+00, ptr %1, align 8
  %_M_next_resize.i.i.i.i = getelementptr inbounds i8, ptr %this, i64 152
  %d_context.i = getelementptr inbounds i8, ptr %this, i64 176
  tail call void @llvm.memset.p0.i64(ptr noundef nonnull align 8 dereferenceable(24) %_M_next_resize.i.i.i.i, i8 0, i64 24, i1 false)
  store ptr %cond, ptr %d_context.i, align 8
  %d_name = getelementptr inbounds i8, ptr %this, i64 184
  invoke void @_ZNSt7__cxx1112basic_stringIcSt11char_traitsIcESaIcEEC1ERKS4_(ptr noundef nonnull align 8 dereferenceable(32) %d_name, ptr noundef nonnull align 8 dereferenceable(32) %name)
          to label %invoke.cont8 unwind label %lpad7

invoke.cont8:                                     ; preds = %invoke.cont6
  %frombool = zext i1 %autoSymm to i8
  %d_autoSymm = getelementptr inbounds i8, ptr %this, i64 216
  store i8 %frombool, ptr %d_autoSymm, align 8
  ret void

lpad2:                                            ; preds = %entry
  %2 = landingpad { ptr, i32 }
          cleanup
  br label %ehcleanup11

lpad5:                                            ; preds = %invoke.cont3
  %3 = landingpad { ptr, i32 }
          cleanup
  br label %ehcleanup

lpad7:                                            ; preds = %invoke.cont6
  %4 = landingpad { ptr, i32 }
          cleanup
  tail call void @_ZN4cvc57context9CDHashMapINS_8internal12NodeTemplateILb1EEESt10shared_ptrINS2_9ProofNodeEESt4hashIS4_EED2Ev(ptr noundef nonnull align 8 dereferenceable(112) %d_nodes) #19
  br label %ehcleanup

ehcleanup:                                        ; preds = %lpad7, %lpad5
  %.pn = phi { ptr, i32 } [ %4, %lpad7 ], [ %3, %lpad5 ]
  tail call void @_ZN4cvc57context7ContextD1Ev(ptr noundef nonnull align 8 dereferenceable(48) %d_context) #19
  br label %ehcleanup11

ehcleanup11:                                      ; preds = %ehcleanup, %lpad2
  %.pn.pn = phi { ptr, i32 } [ %.pn, %ehcleanup ], [ %2, %lpad2 ]
  tail call void @_ZN4cvc58internal14ProofGeneratorD2Ev(ptr noundef nonnull align 8 dereferenceable(8) %0) #19
  resume { ptr, i32 } %.pn.pn
}